target datalayout = "e-m:e-p270:32:32-p271:32:32-p272:64:64-i64:64-i128:128-f80:128-n8:16:32:64-S128"
target triple = "x86_64-pc-linux-gnu"

%struct.evp_cipher_ctx_st = type { ptr, ptr, i32, i32, [16 x i8], [16 x i8], [32 x i8], i32, ptr, i32, i32, i64, ptr, i32, i32, [32 x i8], i64, ptr, ptr }
%struct.evp_cipher_st = type { i32, i32, i32, i32, i64, i32, ptr, ptr, ptr, i32, ptr, ptr, ptr, ptr, i32, ptr, ptr, ptr, %struct.CRYPTO_REF_COUNT, ptr, ptr, ptr, ptr, ptr, ptr, ptr, ptr, ptr, ptr, ptr, ptr, ptr, ptr, ptr, ptr, ptr, ptr, ptr, ptr }
%struct.CRYPTO_REF_COUNT = type { i32 }

@.str = private unnamed_addr constant [32 x i8] c"../openssl/crypto/evp/evp_enc.c\00", align 1
@__func__.EVP_CipherPipelineFinal = private unnamed_addr constant [24 x i8] c"EVP_CipherPipelineFinal\00", align 1

; Function Attrs: nounwind uwtable
define i32 @EVP_CipherPipelineFinal(ptr noundef %0, ptr noundef %1, ptr noundef %2, ptr noundef %3) #0 {
  %5 = alloca i32, align 4
  %6 = alloca ptr, align 8
  %7 = alloca ptr, align 8
  %8 = alloca ptr, align 8
  %9 = alloca ptr, align 8
  %10 = alloca i64, align 8
  %11 = alloca i32, align 4
  store ptr %0, ptr %6, align 8, !tbaa !3
  store ptr %1, ptr %7, align 8, !tbaa !61
  store ptr %2, ptr %8, align 8, !tbaa !70
  store ptr %3, ptr %9, align 8, !tbaa !70
  call void @llvm.lifetime.start.p0(i64 8, ptr %10) #9
  %12 = load ptr, ptr %8, align 8, !tbaa !70
  %13 = icmp eq ptr %12, null
  %14 = xor i1 %13, true
  %15 = xor i1 %14, true
  %16 = zext i1 %15 to i32
  %17 = sext i32 %16 to i64
  %18 = call i64 @llvm.expect.i64(i64 %17, i64 0)
  %19 = icmp ne i64 %18, 0
  br i1 %19, label %20, label %21

20:                                               ; preds = %4
  call void @ERR_new()
  call void @ERR_set_debug(ptr noundef @.str, i32 noundef 776, ptr noundef @__func__.EVP_CipherPipelineFinal)
  call void (i32, i32, ptr, ...) @ERR_set_error(i32 noundef 6, i32 noundef 786690, ptr noundef null)
  store i32 0, ptr %5, align 4
  store i32 1, ptr %11, align 4
  br label %91

21:                                               ; preds = %4
  %22 = load ptr, ptr %6, align 8, !tbaa !3
  %23 = getelementptr inbounds nuw %struct.evp_cipher_ctx_st, ptr %22, i32 0, i32 0
  %24 = load ptr, ptr %23, align 8, !tbaa !8
  %25 = icmp eq ptr %24, null
  %26 = xor i1 %25, true
  %27 = xor i1 %26, true
  %28 = zext i1 %27 to i32
  %29 = sext i32 %28 to i64
  %30 = call i64 @llvm.expect.i64(i64 %29, i64 0)
  %31 = icmp ne i64 %30, 0
  br i1 %31, label %32, label %33

32:                                               ; preds = %21
  call void @ERR_new()
  call void @ERR_set_debug(ptr noundef @.str, i32 noundef 781, ptr noundef @__func__.EVP_CipherPipelineFinal)
  call void (i32, i32, ptr, ...) @ERR_set_error(i32 noundef 6, i32 noundef 131, ptr noundef null)
  store i32 0, ptr %5, align 4
  store i32 1, ptr %11, align 4
  br label %91

33:                                               ; preds = %21
  %34 = load ptr, ptr %6, align 8, !tbaa !3
  %35 = getelementptr inbounds nuw %struct.evp_cipher_ctx_st, ptr %34, i32 0, i32 0
  %36 = load ptr, ptr %35, align 8, !tbaa !8
  %37 = getelementptr inbounds nuw %struct.evp_cipher_st, ptr %36, i32 0, i32 17
  %38 = load ptr, ptr %37, align 8, !tbaa !14
  %39 = icmp eq ptr %38, null
  %40 = xor i1 %39, true
  %41 = xor i1 %40, true
  %42 = zext i1 %41 to i32
  %43 = sext i32 %42 to i64
  %44 = call i64 @llvm.expect.i64(i64 %43, i64 0)
  %45 = icmp ne i64 %44, 0
  br i1 %45, label %46, label %47

46:                                               ; preds = %33
  call void @ERR_new()
  call void @ERR_set_debug(ptr noundef @.str, i32 noundef 786, ptr noundef @__func__.EVP_CipherPipelineFinal)
  call void (i32, i32, ptr, ...) @ERR_set_error(i32 noundef 6, i32 noundef 148, ptr noundef null)
  store i32 0, ptr %5, align 4
  store i32 1, ptr %11, align 4
  br label %91

47:                                               ; preds = %33
  %48 = load ptr, ptr %6, align 8, !tbaa !3
  %49 = getelementptr inbounds nuw %struct.evp_cipher_ctx_st, ptr %48, i32 0, i32 0
  %50 = load ptr, ptr %49, align 8, !tbaa !8
  %51 = getelementptr inbounds nuw %struct.evp_cipher_st, ptr %50, i32 0, i32 28
  %52 = load ptr, ptr %51, align 8, !tbaa !79
  %53 = icmp eq ptr %52, null
  %54 = xor i1 %53, true
  %55 = xor i1 %54, true
  %56 = zext i1 %55 to i32
  %57 = sext i32 %56 to i64
  %58 = call i64 @llvm.expect.i64(i64 %57, i64 0)
  %59 = icmp ne i64 %58, 0
  br i1 %59, label %60, label %61

60:                                               ; preds = %47
  call void @ERR_new()
  call void @ERR_set_debug(ptr noundef @.str, i32 noundef 791, ptr noundef @__func__.EVP_CipherPipelineFinal)
  call void (i32, i32, ptr, ...) @ERR_set_error(i32 noundef 6, i32 noundef 188, ptr noundef null)
  store i32 0, ptr %5, align 4
  store i32 1, ptr %11, align 4
  br label %91

61:                                               ; preds = %47
  store i64 0, ptr %10, align 8, !tbaa !33
  br label %62

62:                                               ; preds = %72, %61
  %63 = load i64, ptr %10, align 8, !tbaa !33
  %64 = load ptr, ptr %6, align 8, !tbaa !3
  %65 = getelementptr inbounds nuw %struct.evp_cipher_ctx_st, ptr %64, i32 0, i32 16
  %66 = load i64, ptr %65, align 8, !tbaa !63
  %67 = icmp ult i64 %63, %66
  br i1 %67, label %68, label %75

68:                                               ; preds = %62
  %69 = load ptr, ptr %8, align 8, !tbaa !70
  %70 = load i64, ptr %10, align 8, !tbaa !33
  %71 = getelementptr inbounds nuw i64, ptr %69, i64 %70
  store i64 0, ptr %71, align 8, !tbaa !33
  br label %72

72:                                               ; preds = %68
  %73 = load i64, ptr %10, align 8, !tbaa !33
  %74 = add i64 %73, 1
  store i64 %74, ptr %10, align 8, !tbaa !33
  br label %62, !llvm.loop !80

75:                                               ; preds = %62
  %76 = load ptr, ptr %6, align 8, !tbaa !3
  %77 = getelementptr inbounds nuw %struct.evp_cipher_ctx_st, ptr %76, i32 0, i32 0
  %78 = load ptr, ptr %77, align 8, !tbaa !8
  %79 = getelementptr inbounds nuw %struct.evp_cipher_st, ptr %78, i32 0, i32 28
  %80 = load ptr, ptr %79, align 8, !tbaa !79
  %81 = load ptr, ptr %6, align 8, !tbaa !3
  %82 = getelementptr inbounds nuw %struct.evp_cipher_ctx_st, ptr %81, i32 0, i32 17
  %83 = load ptr, ptr %82, align 8, !tbaa !19
  %84 = load ptr, ptr %6, align 8, !tbaa !3
  %85 = getelementptr inbounds nuw %struct.evp_cipher_ctx_st, ptr %84, i32 0, i32 16
  %86 = load i64, ptr %85, align 8, !tbaa !63
  %87 = load ptr, ptr %7, align 8, !tbaa !61
  %88 = load ptr, ptr %8, align 8, !tbaa !70
  %89 = load ptr, ptr %9, align 8, !tbaa !70
  %90 = call i32 %80(ptr noundef %83, i64 noundef %86, ptr noundef %87, ptr noundef %88, ptr noundef %89)
  store i32 %90, ptr %5, align 4
  store i32 1, ptr %11, align 4
  br label %91

91:                                               ; preds = %75, %60, %46, %32, %20
  call void @llvm.lifetime.end.p0(i64 8, ptr %10) #9
  %92 = load i32, ptr %5, align 4
  ret i32 %92
}