; Function Attrs: nounwind uwtable
define i32 @EVP_CipherPipelineFinal(ptr noundef readonly captures(none) %0, ptr noundef %1, ptr noundef %2, ptr noundef %3) local_unnamed_addr #0 {
  %5 = icmp eq ptr %2, null
  br i1 %5, label %6, label %7, !prof !61

6:                                                ; preds = %4
  tail call void @ERR_new() #10
  tail call void @ERR_set_debug(ptr noundef nonnull @.str, i32 noundef 776, ptr noundef nonnull @__func__.EVP_CipherPipelineFinal) #10
  tail call void (i32, i32, ptr, ...) @ERR_set_error(i32 noundef 6, i32 noundef 786690, ptr noundef null) #10
  br label %30

7:                                                ; preds = %4
  %8 = load ptr, ptr %0, align 8, !tbaa !3
  %9 = icmp eq ptr %8, null
  br i1 %9, label %10, label %11, !prof !61

10:                                               ; preds = %7
  tail call void @ERR_new() #10
  tail call void @ERR_set_debug(ptr noundef nonnull @.str, i32 noundef 781, ptr noundef nonnull @__func__.EVP_CipherPipelineFinal) #10
  tail call void (i32, i32, ptr, ...) @ERR_set_error(i32 noundef 6, i32 noundef 131, ptr noundef null) #10
  br label %30

11:                                               ; preds = %7
  %12 = getelementptr inbounds nuw i8, ptr %8, i64 120
  %13 = load ptr, ptr %12, align 8, !tbaa !12
  %14 = icmp eq ptr %13, null
  br i1 %14, label %15, label %16, !prof !61

15:                                               ; preds = %11
  tail call void @ERR_new() #10
  tail call void @ERR_set_debug(ptr noundef nonnull @.str, i32 noundef 786, ptr noundef nonnull @__func__.EVP_CipherPipelineFinal) #10
  tail call void (i32, i32, ptr, ...) @ERR_set_error(i32 noundef 6, i32 noundef 148, ptr noundef null) #10
  br label %30

16:                                               ; preds = %11
  %17 = getelementptr inbounds nuw i8, ptr %8, i64 208
  %18 = load ptr, ptr %17, align 8, !tbaa !49
  %19 = icmp eq ptr %18, null
  br i1 %19, label %22, label %.preheader, !prof !61

.preheader:                                       ; preds = %16
  %20 = getelementptr inbounds nuw i8, ptr %0, i64 168
  %21 = load i64, ptr %20, align 8, !tbaa !60
  %.not = icmp eq i64 %21, 0
  br i1 %.not, label %._crit_edge, label %.lr.ph

22:                                               ; preds = %16
  tail call void @ERR_new() #10
  tail call void @ERR_set_debug(ptr noundef nonnull @.str, i32 noundef 791, ptr noundef nonnull @__func__.EVP_CipherPipelineFinal) #10
  tail call void (i32, i32, ptr, ...) @ERR_set_error(i32 noundef 6, i32 noundef 188, ptr noundef null) #10
  br label %30

.lr.ph:                                           ; preds = %.preheader, %.lr.ph
  %.019 = phi i64 [ %24, %.lr.ph ], [ 0, %.preheader ]
  %23 = getelementptr inbounds nuw i64, ptr %2, i64 %.019
  store i64 0, ptr %23, align 8, !tbaa !39
  %24 = add nuw i64 %.019, 1
  %25 = load i64, ptr %20, align 8, !tbaa !60
  %26 = icmp ult i64 %24, %25
  br i1 %26, label %.lr.ph, label %._crit_edge, !llvm.loop !71

._crit_edge:                                      ; preds = %.lr.ph, %.preheader
  %.lcssa = phi i64 [ 0, %.preheader ], [ %25, %.lr.ph ]
  %27 = getelementptr inbounds nuw i8, ptr %0, i64 176
  %28 = load ptr, ptr %27, align 8, !tbaa !17
  %29 = tail call i32 %18(ptr noundef %28, i64 noundef %.lcssa, ptr noundef %1, ptr noundef nonnull %2, ptr noundef %3) #10
  br label %30

30:                                               ; preds = %._crit_edge, %22, %15, %10, %6
  %.015 = phi i32 [ 0, %6 ], [ 0, %10 ], [ 0, %15 ], [ 0, %22 ], [ %29, %._crit_edge ]
  ret i32 %.015
}